target datalayout = "e-m:e-p270:32:32-p271:32:32-p272:64:64-i64:64-i128:128-f80:128-n8:16:32:64-S128"
target triple = "x86_64-pc-linux-gnu"

%"class.btInverseDynamicsBullet3::MultiBodyTree" = type { i8, i8, i8, ptr, ptr }
%"class.btInverseDynamicsBullet3::MultiBodyTree::MultiBodyImpl" = type { i32, i32, %"class.btInverseDynamicsBullet3::vec3", %class.b3AlignedObjectArray.6, %class.b3AlignedObjectArray.2, %class.b3AlignedObjectArray.8, %class.b3AlignedObjectArray.2, %class.b3AlignedObjectArray.2, %class.b3AlignedObjectArray.2, %class.b3AlignedObjectArray.2, %class.b3AlignedObjectArray.2, %class.b3AlignedObjectArray.4, %"class.btInverseDynamicsBullet3::mat3x" }
%"class.btInverseDynamicsBullet3::vec3" = type { %class.btVector3 }
%class.btVector3 = type { [4 x float] }
%class.b3AlignedObjectArray.6 = type <{ [4 x i8], i32, i32, [4 x i8], ptr, i8, [7 x i8] }>
%class.b3AlignedObjectArray.8 = type <{ [4 x i8], i32, i32, [4 x i8], ptr, i8, [7 x i8] }>
%class.b3AlignedObjectArray.2 = type <{ [4 x i8], i32, i32, [4 x i8], ptr, i8, [7 x i8] }>
%class.b3AlignedObjectArray.4 = type <{ [4 x i8], i32, i32, [4 x i8], ptr, i8, [7 x i8] }>
%"class.btInverseDynamicsBullet3::mat3x" = type { %struct.btMatrixX }
%struct.btMatrixX = type { i32, i32, i32, i32, i32, [4 x i8], %class.btAlignedObjectArray, %class.btAlignedObjectArray.10 }
%class.btAlignedObjectArray = type <{ [4 x i8], i32, i32, [4 x i8], ptr, i8, [7 x i8] }>
%class.btAlignedObjectArray.10 = type <{ [4 x i8], i32, i32, [4 x i8], ptr, i8, [7 x i8] }>

@.str = private unnamed_addr constant [17 x i8] c"b3Error[%s,%d]:\0A\00", align 1
@.str.1 = private unnamed_addr constant [137 x i8] c"generated/home/dtcxzyw/WorkSpace/Projects/compilers/llvm-opt-benchmark/bench/bullet3/bullet3/src/BulletInverseDynamics/MultiBodyTree.cpp\00", align 1
@.str.2 = private unnamed_addr constant [33 x i8] c"system has not been initialized\0A\00", align 1
@.str.5 = private unnamed_addr constant [33 x i8] c"error in kinematics calculation\0A\00", align 1

; Function Attrs: mustprogress uwtable
define dso_local noundef i32 @_ZN24btInverseDynamicsBullet313MultiBodyTree19calculateKinematicsERKNS_4vecxES3_S3_(ptr noundef nonnull align 8 dereferenceable(24) %0, ptr noundef nonnull align 8 dereferenceable(32) %1, ptr noundef nonnull align 8 dereferenceable(32) %2, ptr noundef nonnull align 8 dereferenceable(32) %3) #2 align 2 {
  %5 = alloca i32, align 4
  %6 = alloca ptr, align 8
  %7 = alloca ptr, align 8
  %8 = alloca ptr, align 8
  %9 = alloca ptr, align 8
  %10 = alloca %"class.btInverseDynamicsBullet3::vec3", align 4
  %11 = alloca i32, align 4
  store ptr %0, ptr %6, align 8, !tbaa !12
  store ptr %1, ptr %7, align 8, !tbaa !59
  store ptr %2, ptr %8, align 8, !tbaa !59
  store ptr %3, ptr %9, align 8, !tbaa !59
  %12 = load ptr, ptr %6, align 8
  call void @llvm.lifetime.start.p0(i64 16, ptr %10) #12
  %13 = getelementptr inbounds nuw %"class.btInverseDynamicsBullet3::MultiBodyTree", ptr %12, i32 0, i32 3
  %14 = load ptr, ptr %13, align 8, !tbaa !21
  %15 = getelementptr inbounds nuw %"class.btInverseDynamicsBullet3::MultiBodyTree::MultiBodyImpl", ptr %14, i32 0, i32 2
  call void @llvm.memcpy.p0.p0.i64(ptr align 4 %10, ptr align 8 %15, i64 16, i1 false)
  %16 = getelementptr inbounds nuw %"class.btInverseDynamicsBullet3::MultiBodyTree", ptr %12, i32 0, i32 3
  %17 = load ptr, ptr %16, align 8, !tbaa !21
  %18 = getelementptr inbounds nuw %"class.btInverseDynamicsBullet3::MultiBodyTree::MultiBodyImpl", ptr %17, i32 0, i32 2
  call void @_ZN24btInverseDynamicsBullet37setZeroERNS_4vec3E(ptr noundef nonnull align 4 dereferenceable(16) %18)
  %19 = getelementptr inbounds nuw %"class.btInverseDynamicsBullet3::MultiBodyTree", ptr %12, i32 0, i32 0
  %20 = load i8, ptr %19, align 8, !tbaa !14, !range !29, !noundef !30
  %21 = trunc i8 %20 to i1
  %22 = zext i1 %21 to i32
  %23 = icmp eq i32 0, %22
  br i1 %23, label %24, label %28

24:                                               ; preds = %4
  br label %25

25:                                               ; preds = %24
  call void (ptr, ...) @b3OutputErrorMessageVarArgsInternal(ptr noundef @.str, ptr noundef @.str.1, i32 noundef 146)
  call void (ptr, ...) @b3OutputErrorMessageVarArgsInternal(ptr noundef @.str.2)
  br label %26

26:                                               ; preds = %25
  br label %27

27:                                               ; preds = %26
  store i32 -1, ptr %5, align 4
  store i32 1, ptr %11, align 4
  br label %44

28:                                               ; preds = %4
  %29 = getelementptr inbounds nuw %"class.btInverseDynamicsBullet3::MultiBodyTree", ptr %12, i32 0, i32 3
  %30 = load ptr, ptr %29, align 8, !tbaa !21
  %31 = load ptr, ptr %7, align 8, !tbaa !59
  %32 = load ptr, ptr %8, align 8, !tbaa !59
  %33 = load ptr, ptr %9, align 8, !tbaa !59
  %34 = call noundef i32 @_ZN24btInverseDynamicsBullet313MultiBodyTree13MultiBodyImpl19calculateKinematicsERKNS_4vecxES4_S4_NS1_13KinUpdateTypeE(ptr noundef nonnull align 8 dereferenceable(400) %30, ptr noundef nonnull align 8 dereferenceable(32) %31, ptr noundef nonnull align 8 dereferenceable(32) %32, ptr noundef nonnull align 8 dereferenceable(32) %33, i32 noundef 2)
  %35 = icmp eq i32 -1, %34
  br i1 %35, label %36, label %40

36:                                               ; preds = %28
  br label %37

37:                                               ; preds = %36
  call void (ptr, ...) @b3OutputErrorMessageVarArgsInternal(ptr noundef @.str, ptr noundef @.str.1, i32 noundef 152)
  call void (ptr, ...) @b3OutputErrorMessageVarArgsInternal(ptr noundef @.str.5)
  br label %38

38:                                               ; preds = %37
  br label %39

39:                                               ; preds = %38
  store i32 -1, ptr %5, align 4
  store i32 1, ptr %11, align 4
  br label %44

40:                                               ; preds = %28
  %41 = getelementptr inbounds nuw %"class.btInverseDynamicsBullet3::MultiBodyTree", ptr %12, i32 0, i32 3
  %42 = load ptr, ptr %41, align 8, !tbaa !21
  %43 = getelementptr inbounds nuw %"class.btInverseDynamicsBullet3::MultiBodyTree::MultiBodyImpl", ptr %42, i32 0, i32 2
  call void @llvm.memcpy.p0.p0.i64(ptr align 8 %43, ptr align 4 %10, i64 16, i1 false)
  store i32 0, ptr %5, align 4
  store i32 1, ptr %11, align 4
  br label %44

44:                                               ; preds = %40, %39, %27
  call void @llvm.lifetime.end.p0(i64 16, ptr %10) #12
  %45 = load i32, ptr %5, align 4
  ret i32 %45
}